target datalayout = "e-m:e-p270:32:32-p271:32:32-p272:64:64-i64:64-i128:128-f80:128-n8:16:32:64-S128"
target triple = "x86_64-pc-linux-gnu"

%"class.boost::scoped_ptr.10" = type { ptr }

; Function Attrs: mustprogress nounwind uwtable
define linkonce_odr dso_local void @_ZN5boost10scoped_ptrIN4i18n12phonenumbers11AreaCodeMapEE4swapERS4_(ptr noundef nonnull align 8 dereferenceable(8) %0, ptr noundef nonnull align 8 dereferenceable(8) %1) #5 comdat align 2 {
  %3 = alloca ptr, align 8
  %4 = alloca ptr, align 8
  %5 = alloca ptr, align 8
  store ptr %0, ptr %3, align 8
  store ptr %1, ptr %4, align 8
  %6 = load ptr, ptr %3, align 8
  %7 = load ptr, ptr %4, align 8
  %8 = getelementptr inbounds %"class.boost::scoped_ptr.10", ptr %7, i32 0, i32 0
  %9 = load ptr, ptr %8, align 8
  store ptr %9, ptr %5, align 8
  %10 = getelementptr inbounds %"class.boost::scoped_ptr.10", ptr %6, i32 0, i32 0
  %11 = load ptr, ptr %10, align 8
  %12 = load ptr, ptr %4, align 8
  %13 = getelementptr inbounds %"class.boost::scoped_ptr.10", ptr %12, i32 0, i32 0
  store ptr %11, ptr %13, align 8
  %14 = load ptr, ptr %5, align 8
  %15 = getelementptr inbounds %"class.boost::scoped_ptr.10", ptr %6, i32 0, i32 0
  store ptr %14, ptr %15, align 8
  ret void
}

; Function Attrs: mustprogress nounwind uwtable
define linkonce_odr dso_local noundef ptr @_ZNK5boost10scoped_ptrIN4i18n12phonenumbers11AreaCodeMapEEptEv(ptr noundef nonnull align 8 dereferenceable(8) %0) #5 comdat align 2 {
  %2 = alloca ptr, align 8
  store ptr %0, ptr %2, align 8
  %3 = load ptr, ptr %2, align 8
  %4 = getelementptr inbounds %"class.boost::scoped_ptr.10", ptr %3, i32 0, i32 0
  %5 = load ptr, ptr %4, align 8
  ret ptr %5
}

; Function Attrs: mustprogress nounwind uwtable
define linkonce_odr dso_local void @_ZN5boost10scoped_ptrIN4i18n12phonenumbers11AreaCodeMapEEC2EPS3_(ptr noundef nonnull align 8 dereferenceable(8) %0, ptr noundef %1) unnamed_addr #5 comdat align 2 {
  %3 = alloca ptr, align 8
  %4 = alloca ptr, align 8
  store ptr %0, ptr %3, align 8
  store ptr %1, ptr %4, align 8
  %5 = load ptr, ptr %3, align 8
  %6 = getelementptr inbounds %"class.boost::scoped_ptr.10", ptr %5, i32 0, i32 0
  %7 = load ptr, ptr %4, align 8
  store ptr %7, ptr %6, align 8
  ret void
}

; Function Attrs: mustprogress uwtable
define internal void @_ZN4i18n12phonenumbers12_GLOBAL__N_111MakeCodeMapEPKNS0_18PrefixDescriptionsEPN5boost10scoped_ptrINS0_11AreaCodeMapEEE(ptr noundef %0, ptr noundef %1) #4 personality ptr @__gxx_personality_v0 {
  %3 = alloca ptr, align 8
  %4 = alloca ptr, align 8
  %5 = alloca %"class.boost::scoped_ptr.10", align 8
  %6 = alloca ptr, align 8
  %7 = alloca i32, align 4
  store ptr %0, ptr %3, align 8
  store ptr %1, ptr %4, align 8
  %8 = call noalias noundef nonnull ptr @_Znwm(i64 noundef 16) #11
  invoke void @_ZN4i18n12phonenumbers11AreaCodeMapC1Ev(ptr noundef nonnull align 8 dereferenceable(16) %8)
          to label %9 unwind label %14

9:                                                ; preds = %2
  call void @_ZN5boost10scoped_ptrIN4i18n12phonenumbers11AreaCodeMapEEC2EPS3_(ptr noundef nonnull align 8 dereferenceable(8) %5, ptr noundef %8) #3
  %10 = call noundef ptr @_ZNK5boost10scoped_ptrIN4i18n12phonenumbers11AreaCodeMapEEptEv(ptr noundef nonnull align 8 dereferenceable(8) %5) #3
  %11 = load ptr, ptr %3, align 8
  invoke void @_ZN4i18n12phonenumbers11AreaCodeMap15ReadAreaCodeMapEPKNS0_18PrefixDescriptionsE(ptr noundef nonnull align 8 dereferenceable(16) %10, ptr noundef %11)
          to label %12 unwind label %18

12:                                               ; preds = %9
  %13 = load ptr, ptr %4, align 8
  call void @_ZN5boost10scoped_ptrIN4i18n12phonenumbers11AreaCodeMapEE4swapERS4_(ptr noundef nonnull align 8 dereferenceable(8) %13, ptr noundef nonnull align 8 dereferenceable(8) %5) #3
  call void @_ZN5boost10scoped_ptrIN4i18n12phonenumbers11AreaCodeMapEED2Ev(ptr noundef nonnull align 8 dereferenceable(8) %5) #3
  ret void

14:                                               ; preds = %2
  %15 = landingpad { ptr, i32 }
          cleanup
  %16 = extractvalue { ptr, i32 } %15, 0
  store ptr %16, ptr %6, align 8
  %17 = extractvalue { ptr, i32 } %15, 1
  store i32 %17, ptr %7, align 4
  call void @_ZdlPv(ptr noundef %8) #12
  br label %22

18:                                               ; preds = %9
  %19 = landingpad { ptr, i32 }
          cleanup
  %20 = extractvalue { ptr, i32 } %19, 0
  store ptr %20, ptr %6, align 8
  %21 = extractvalue { ptr, i32 } %19, 1
  store i32 %21, ptr %7, align 4
  call void @_ZN5boost10scoped_ptrIN4i18n12phonenumbers11AreaCodeMapEED2Ev(ptr noundef nonnull align 8 dereferenceable(8) %5) #3
  br label %22

22:                                               ; preds = %18, %14
  %23 = load ptr, ptr %6, align 8
  %24 = load i32, ptr %7, align 4
  %25 = insertvalue { ptr, i32 } poison, ptr %23, 0
  %26 = insertvalue { ptr, i32 } %25, i32 %24, 1
  resume { ptr, i32 } %26
}