; Function Attrs: mustprogress uwtable
define internal fastcc void @_ZN4i18n12phonenumbers12_GLOBAL__N_111MakeCodeMapEPKNS0_18PrefixDescriptionsEPN5boost10scoped_ptrINS0_11AreaCodeMapEEE(ptr noundef %0, ptr nocapture noundef %1) unnamed_addr #3 personality ptr @__gxx_personality_v0 {
  %3 = alloca %"class.boost::scoped_ptr.10", align 8
  %4 = tail call noalias noundef nonnull dereferenceable(16) ptr @_Znwm(i64 noundef 16) #14
  invoke void @_ZN4i18n12phonenumbers11AreaCodeMapC1Ev(ptr noundef nonnull align 8 dereferenceable(16) %4)
          to label %5 unwind label %10

5:                                                ; preds = %2
  store ptr %4, ptr %3, align 8
  invoke void @_ZN4i18n12phonenumbers11AreaCodeMap15ReadAreaCodeMapEPKNS0_18PrefixDescriptionsE(ptr noundef nonnull align 8 dereferenceable(16) %4, ptr noundef %0)
          to label %6 unwind label %12

6:                                                ; preds = %5
  %7 = load ptr, ptr %1, align 8
  store ptr %4, ptr %1, align 8
  %8 = icmp eq ptr %7, null
  br i1 %8, label %_ZN5boost10scoped_ptrIN4i18n12phonenumbers11AreaCodeMapEED2Ev.exit, label %9

9:                                                ; preds = %6
  tail call void @_ZN4i18n12phonenumbers11AreaCodeMapD1Ev(ptr noundef nonnull align 8 dereferenceable(16) %7) #12
  tail call void @_ZdlPv(ptr noundef nonnull %7) #13
  br label %_ZN5boost10scoped_ptrIN4i18n12phonenumbers11AreaCodeMapEED2Ev.exit

_ZN5boost10scoped_ptrIN4i18n12phonenumbers11AreaCodeMapEED2Ev.exit: ; preds = %6, %9
  ret void

10:                                               ; preds = %2
  %11 = landingpad { ptr, i32 }
          cleanup
  tail call void @_ZdlPv(ptr noundef nonnull %4) #13
  br label %14

12:                                               ; preds = %5
  %13 = landingpad { ptr, i32 }
          cleanup
  call void @_ZN5boost10scoped_ptrIN4i18n12phonenumbers11AreaCodeMapEED2Ev(ptr noundef nonnull align 8 dereferenceable(8) %3) #12
  br label %14

14:                                               ; preds = %12, %10
  %.pn = phi { ptr, i32 } [ %13, %12 ], [ %11, %10 ]
  resume { ptr, i32 } %.pn
}